; Function Attrs: nounwind uwtable
define void @yy_switch_to_buffer(ptr noundef %0, ptr nocapture noundef %1) local_unnamed_addr #0 {
  tail call fastcc void @yyensure_buffer_stack(ptr noundef %1)
  %3 = getelementptr inbounds i8, ptr %1, i64 40
  %4 = load ptr, ptr %3, align 8
  %.not = icmp eq ptr %4, null
  br i1 %.not, label %5, label %.thread

5:                                                ; preds = %2
  %6 = icmp eq ptr %0, null
  tail call void @llvm.assume(i1 %6)
  br label %54

.thread:                                          ; preds = %2
  %7 = getelementptr inbounds i8, ptr %1, i64 24
  %8 = load i64, ptr %7, align 8
  %9 = getelementptr inbounds ptr, ptr %4, i64 %8
  %10 = load ptr, ptr %9, align 8
  %11 = icmp eq ptr %10, %0
  br i1 %11, label %54, label %12

12:                                               ; preds = %.thread
  %.not25 = icmp eq ptr %10, null
  br i1 %.not25, label %31, label %13

13:                                               ; preds = %12
  %14 = getelementptr inbounds i8, ptr %1, i64 48
  %15 = load i8, ptr %14, align 8
  %16 = getelementptr inbounds i8, ptr %1, i64 64
  %17 = load ptr, ptr %16, align 8
  store i8 %15, ptr %17, align 1
  %18 = load ptr, ptr %16, align 8
  %19 = load ptr, ptr %3, align 8
  %20 = load i64, ptr %7, align 8
  %21 = getelementptr inbounds ptr, ptr %19, i64 %20
  %22 = load ptr, ptr %21, align 8
  %23 = getelementptr inbounds i8, ptr %22, i64 16
  store ptr %18, ptr %23, align 8
  %24 = getelementptr inbounds i8, ptr %1, i64 52
  %25 = load i32, ptr %24, align 4
  %26 = load ptr, ptr %3, align 8
  %27 = load i64, ptr %7, align 8
  %28 = getelementptr inbounds ptr, ptr %26, i64 %27
  %29 = load ptr, ptr %28, align 8
  %30 = getelementptr inbounds i8, ptr %29, i64 28
  store i32 %25, ptr %30, align 4
  %.pre = load ptr, ptr %3, align 8
  br label %31

31:                                               ; preds = %13, %12
  %32 = phi ptr [ %.pre, %13 ], [ %4, %12 ]
  %33 = getelementptr inbounds i8, ptr %1, i64 24
  %34 = load i64, ptr %33, align 8
  %35 = getelementptr inbounds ptr, ptr %32, i64 %34
  store ptr %0, ptr %35, align 8
  %36 = load ptr, ptr %3, align 8
  %37 = load i64, ptr %33, align 8
  %38 = getelementptr inbounds ptr, ptr %36, i64 %37
  %39 = load ptr, ptr %38, align 8
  %40 = getelementptr inbounds i8, ptr %39, i64 28
  %41 = load i32, ptr %40, align 4
  %42 = getelementptr inbounds i8, ptr %1, i64 52
  store i32 %41, ptr %42, align 4
  %43 = load ptr, ptr %38, align 8
  %44 = getelementptr inbounds i8, ptr %43, i64 16
  %45 = load ptr, ptr %44, align 8
  %46 = getelementptr inbounds i8, ptr %1, i64 64
  store ptr %45, ptr %46, align 8
  %47 = getelementptr inbounds i8, ptr %1, i64 128
  store ptr %45, ptr %47, align 8
  %48 = load ptr, ptr %38, align 8
  %49 = load ptr, ptr %48, align 8
  %50 = getelementptr inbounds i8, ptr %1, i64 8
  store ptr %49, ptr %50, align 8
  %51 = load i8, ptr %45, align 1
  %52 = getelementptr inbounds i8, ptr %1, i64 48
  store i8 %51, ptr %52, align 8
  %53 = getelementptr inbounds i8, ptr %1, i64 80
  store i32 1, ptr %53, align 8
  br label %54

54:                                               ; preds = %5, %.thread, %31
  ret void
}